; Function Attrs: nofree norecurse nosync nounwind memory(argmem: readwrite) uwtable
define internal void @DC16_SSE2(ptr noundef captures(none) %0) #2 {
  %2 = getelementptr inbounds i8, ptr %0, i64 -32
  %3 = load <16 x i8>, ptr %2, align 1, !tbaa !7
  %4 = tail call <2 x i64> @llvm.x86.sse2.psad.bw(<16 x i8> %3, <16 x i8> zeroinitializer)
  %5 = bitcast <2 x i64> %4 to <4 x i32>
  %6 = shufflevector <4 x i32> %5, <4 x i32> poison, <4 x i32> <i32 2, i32 poison, i32 poison, i32 poison>
  %7 = bitcast <4 x i32> %6 to <8 x i16>
  %invariant.gep = getelementptr i8, ptr %0, i64 -1
  br label %8

8:                                                ; preds = %1, %8
  %indvars.iv = phi i64 [ 0, %1 ], [ %indvars.iv.next, %8 ]
  %.015 = phi i32 [ 0, %1 ], [ %12, %8 ]
  %9 = shl nuw nsw i64 %indvars.iv, 5
  %gep = getelementptr i8, ptr %invariant.gep, i64 %9
  %10 = load i8, ptr %gep, align 1, !tbaa !7
  %11 = zext i8 %10 to i32
  %12 = add nuw nsw i32 %.015, %11
  %indvars.iv.next = add nuw nsw i64 %indvars.iv, 1
  %exitcond.not = icmp eq i64 %indvars.iv.next, 16
  br i1 %exitcond.not, label %13, label %8, !llvm.loop !16

13:                                               ; preds = %8
  %14 = bitcast <2 x i64> %4 to <8 x i16>
  %15 = add <8 x i16> %7, %14
  %16 = bitcast <8 x i16> %15 to <4 x i32>
  %17 = extractelement <4 x i32> %16, i64 0
  %18 = add i32 %17, 16
  %19 = add i32 %18, %12
  %20 = lshr i32 %19, 5
  %21 = trunc i32 %20 to i8
  %22 = insertelement <16 x i8> poison, i8 %21, i64 0
  %23 = shufflevector <16 x i8> %22, <16 x i8> poison, <16 x i32> zeroinitializer
  br label %24

24:                                               ; preds = %24, %13
  %indvars.iv.i = phi i64 [ 0, %13 ], [ %indvars.iv.next.i, %24 ]
  %25 = shl nuw nsw i64 %indvars.iv.i, 5
  %26 = getelementptr inbounds nuw i8, ptr %0, i64 %25
  store <16 x i8> %23, ptr %26, align 1, !tbaa !7
  %indvars.iv.next.i = add nuw nsw i64 %indvars.iv.i, 1
  %exitcond.not.i = icmp eq i64 %indvars.iv.next.i, 16
  br i1 %exitcond.not.i, label %Put16_SSE2.exit, label %24, !llvm.loop !17

Put16_SSE2.exit:                                  ; preds = %24
  ret void
}